; Function Attrs: inlinehint mustprogress nounwind uwtable
define internal fastcc void @_ZSt8_DestroyIPN4absl12log_internal12_GLOBAL__N_123StructuredProtoTestCaseEEvT_S5_(ptr noundef readonly captures(address) %0, ptr noundef readnone captures(address) %1) unnamed_addr #8 personality ptr @__gxx_personality_v0 {
  %.not4.i = icmp eq ptr %0, %1
  br i1 %.not4.i, label %_ZNSt12_Destroy_auxILb0EE9__destroyIPN4absl12log_internal12_GLOBAL__N_123StructuredProtoTestCaseEEEvT_S7_.exit, label %.lr.ph.i

.lr.ph.i:                                         ; preds = %2, %_ZSt8_DestroyIN4absl12log_internal12_GLOBAL__N_123StructuredProtoTestCaseEEvPT_.exit.i
  %.05.i = phi ptr [ %19, %_ZSt8_DestroyIN4absl12log_internal12_GLOBAL__N_123StructuredProtoTestCaseEEvPT_.exit.i ], [ %0, %2 ]
  %3 = getelementptr inbounds nuw i8, ptr %.05.i, i64 64
  %4 = load ptr, ptr %3, align 8, !tbaa !44
  %.not.i.i.i.i.i.i = icmp eq ptr %4, null
  br i1 %.not.i.i.i.i.i.i, label %_ZNSt6vectorIcSaIcEED2Ev.exit.i.i.i, label %5

5:                                                ; preds = %.lr.ph.i
  %6 = getelementptr inbounds nuw i8, ptr %.05.i, i64 80
  %7 = load ptr, ptr %6, align 8, !tbaa !46
  %8 = ptrtoint ptr %7 to i64
  %9 = ptrtoint ptr %4 to i64
  %10 = sub i64 %8, %9
  tail call void @_ZdlPvm(ptr noundef nonnull %4, i64 noundef %10) #32
  br label %_ZNSt6vectorIcSaIcEED2Ev.exit.i.i.i

_ZNSt6vectorIcSaIcEED2Ev.exit.i.i.i:              ; preds = %5, %.lr.ph.i
  %11 = load ptr, ptr %.05.i, align 8, !tbaa !20
  %12 = getelementptr inbounds nuw i8, ptr %.05.i, i64 16
  %13 = icmp eq ptr %11, %12
  br i1 %13, label %_ZNKSt7__cxx1112basic_stringIcSt11char_traitsIcESaIcEE11_M_is_localEv.exit.thread.i.i.i.i.i, label %_ZNKSt7__cxx1112basic_stringIcSt11char_traitsIcESaIcEE11_M_is_localEv.exit.i.i.i.i.i

_ZNKSt7__cxx1112basic_stringIcSt11char_traitsIcESaIcEE11_M_is_localEv.exit.thread.i.i.i.i.i: ; preds = %_ZNSt6vectorIcSaIcEED2Ev.exit.i.i.i
  %14 = getelementptr inbounds nuw i8, ptr %.05.i, i64 8
  %15 = load i64, ptr %14, align 8, !tbaa !22
  %16 = icmp ult i64 %15, 16
  tail call void @llvm.assume(i1 %16)
  br label %_ZSt8_DestroyIN4absl12log_internal12_GLOBAL__N_123StructuredProtoTestCaseEEvPT_.exit.i

_ZNKSt7__cxx1112basic_stringIcSt11char_traitsIcESaIcEE11_M_is_localEv.exit.i.i.i.i.i: ; preds = %_ZNSt6vectorIcSaIcEED2Ev.exit.i.i.i
  %17 = load i64, ptr %12, align 8, !tbaa !24
  %18 = add i64 %17, 1
  tail call void @_ZdlPvm(ptr noundef %11, i64 noundef %18) #32
  br label %_ZSt8_DestroyIN4absl12log_internal12_GLOBAL__N_123StructuredProtoTestCaseEEvPT_.exit.i

_ZSt8_DestroyIN4absl12log_internal12_GLOBAL__N_123StructuredProtoTestCaseEEvPT_.exit.i: ; preds = %_ZNKSt7__cxx1112basic_stringIcSt11char_traitsIcESaIcEE11_M_is_localEv.exit.i.i.i.i.i, %_ZNKSt7__cxx1112basic_stringIcSt11char_traitsIcESaIcEE11_M_is_localEv.exit.thread.i.i.i.i.i
  %19 = getelementptr inbounds nuw i8, ptr %.05.i, i64 88
  %.not.i = icmp eq ptr %19, %1
  br i1 %.not.i, label %_ZNSt12_Destroy_auxILb0EE9__destroyIPN4absl12log_internal12_GLOBAL__N_123StructuredProtoTestCaseEEEvT_S7_.exit, label %.lr.ph.i, !llvm.loop !150

_ZNSt12_Destroy_auxILb0EE9__destroyIPN4absl12log_internal12_GLOBAL__N_123StructuredProtoTestCaseEEEvT_S7_.exit: ; preds = %_ZSt8_DestroyIN4absl12log_internal12_GLOBAL__N_123StructuredProtoTestCaseEEvPT_.exit.i, %2
  ret void
}